target datalayout = "e-m:e-p270:32:32-p271:32:32-p272:64:64-i64:64-i128:128-f80:128-n8:16:32:64-S128"
target triple = "x86_64-pc-linux-gnu"

%"class.cv::Mat" = type { i32, i32, i32, i32, ptr, ptr, ptr, ptr, ptr, ptr, %"struct.cv::MatSize", %"struct.cv::MatStep" }
%"struct.cv::MatSize" = type { ptr }
%"struct.cv::MatStep" = type { ptr, [2 x i64] }
%"class.cv::Size_" = type { i32, i32 }
%"class.cv::_OutputArray" = type { %"class.cv::_InputArray" }
%"class.cv::_InputArray" = type { i32, ptr, %"class.cv::Size_" }
%struct.CvScalar = type { [4 x double] }
%"class.cv::_InputOutputArray" = type { %"class.cv::_OutputArray" }
%"class.cv::Scalar_" = type { %"class.cv::Vec" }
%"class.cv::Vec" = type { %"class.cv::Matx" }
%"class.cv::Matx" = type { [4 x double] }

; Function Attrs: inlinehint mustprogress nounwind uwtable
define linkonce_odr hidden void @_ZN2cv4MatxIdLi4ELi1EEC2Ev(ptr noundef nonnull align 8 dereferenceable(32) %0) unnamed_addr #2 comdat align 2 {
  %2 = alloca ptr, align 8
  %3 = alloca i32, align 4
  store ptr %0, ptr %2, align 8, !tbaa !169
  %4 = load ptr, ptr %2, align 8
  call void @llvm.lifetime.start.p0(i64 4, ptr %3) #18
  store i32 0, ptr %3, align 4, !tbaa !19
  br label %5

5:                                                ; preds = %14, %1
  %6 = load i32, ptr %3, align 4, !tbaa !19
  %7 = icmp slt i32 %6, 4
  br i1 %7, label %9, label %8

8:                                                ; preds = %5
  call void @llvm.lifetime.end.p0(i64 4, ptr %3) #18
  br label %17

9:                                                ; preds = %5
  %10 = getelementptr inbounds nuw %"class.cv::Matx", ptr %4, i32 0, i32 0
  %11 = load i32, ptr %3, align 4, !tbaa !19
  %12 = sext i32 %11 to i64
  %13 = getelementptr inbounds [4 x double], ptr %10, i64 0, i64 %12
  store double 0.000000e+00, ptr %13, align 8, !tbaa !122
  br label %14

14:                                               ; preds = %9
  %15 = load i32, ptr %3, align 4, !tbaa !19
  %16 = add nsw i32 %15, 1
  store i32 %16, ptr %3, align 4, !tbaa !19
  br label %5, !llvm.loop !171

17:                                               ; preds = %8
  ret void
}

; Function Attrs: inlinehint mustprogress nounwind uwtable
define linkonce_odr hidden void @_ZN2cv5Size_IiEC2Ev(ptr noundef nonnull align 4 dereferenceable(8) %0) unnamed_addr #2 comdat align 2 {
  %2 = alloca ptr, align 8
  store ptr %0, ptr %2, align 8, !tbaa !40
  %3 = load ptr, ptr %2, align 8
  %4 = getelementptr inbounds nuw %"class.cv::Size_", ptr %3, i32 0, i32 0
  store i32 0, ptr %4, align 4, !tbaa !42
  %5 = getelementptr inbounds nuw %"class.cv::Size_", ptr %3, i32 0, i32 1
  store i32 0, ptr %5, align 4, !tbaa !46
  ret void
}

; Function Attrs: inlinehint mustprogress uwtable
define linkonce_odr hidden void @_ZN2cv3VecIdLi4EEC2Ev(ptr noundef nonnull align 8 dereferenceable(32) %0) unnamed_addr #6 comdat align 2 {
  %2 = alloca ptr, align 8
  store ptr %0, ptr %2, align 8, !tbaa !167
  %3 = load ptr, ptr %2, align 8
  call void @_ZN2cv4MatxIdLi4ELi1EEC2Ev(ptr noundef nonnull align 8 dereferenceable(32) %3)
  ret void
}

; Function Attrs: inlinehint mustprogress uwtable
define linkonce_odr hidden void @_ZN2cv11_InputArrayC2Ev(ptr noundef nonnull align 8 dereferenceable(24) %0) unnamed_addr #6 comdat align 2 {
  %2 = alloca ptr, align 8
  store ptr %0, ptr %2, align 8, !tbaa !114
  %3 = load ptr, ptr %2, align 8
  %4 = getelementptr inbounds nuw %"class.cv::_InputArray", ptr %3, i32 0, i32 2
  call void @_ZN2cv5Size_IiEC2Ev(ptr noundef nonnull align 4 dereferenceable(8) %4)
  call void @_ZN2cv11_InputArray4initEiPKv(ptr noundef nonnull align 8 dereferenceable(24) %3, i32 noundef 0, ptr noundef null)
  ret void
}

; Function Attrs: inlinehint mustprogress uwtable
define linkonce_odr hidden void @_ZN2cv7Scalar_IdEC2Edddd(ptr noundef nonnull align 8 dereferenceable(32) %0, double noundef %1, double noundef %2, double noundef %3, double noundef %4) unnamed_addr #6 comdat align 2 {
  %6 = alloca ptr, align 8
  %7 = alloca double, align 8
  %8 = alloca double, align 8
  %9 = alloca double, align 8
  %10 = alloca double, align 8
  store ptr %0, ptr %6, align 8, !tbaa !124
  store double %1, ptr %7, align 8, !tbaa !122
  store double %2, ptr %8, align 8, !tbaa !122
  store double %3, ptr %9, align 8, !tbaa !122
  store double %4, ptr %10, align 8, !tbaa !122
  %11 = load ptr, ptr %6, align 8
  call void @_ZN2cv3VecIdLi4EEC2Ev(ptr noundef nonnull align 8 dereferenceable(32) %11)
  %12 = load double, ptr %7, align 8, !tbaa !122
  %13 = getelementptr inbounds nuw %"class.cv::Matx", ptr %11, i32 0, i32 0
  %14 = getelementptr inbounds [4 x double], ptr %13, i64 0, i64 0
  store double %12, ptr %14, align 8, !tbaa !122
  %15 = load double, ptr %8, align 8, !tbaa !122
  %16 = getelementptr inbounds nuw %"class.cv::Matx", ptr %11, i32 0, i32 0
  %17 = getelementptr inbounds [4 x double], ptr %16, i64 0, i64 1
  store double %15, ptr %17, align 8, !tbaa !122
  %18 = load double, ptr %9, align 8, !tbaa !122
  %19 = getelementptr inbounds nuw %"class.cv::Matx", ptr %11, i32 0, i32 0
  %20 = getelementptr inbounds [4 x double], ptr %19, i64 0, i64 2
  store double %18, ptr %20, align 8, !tbaa !122
  %21 = load double, ptr %10, align 8, !tbaa !122
  %22 = getelementptr inbounds nuw %"class.cv::Matx", ptr %11, i32 0, i32 0
  %23 = getelementptr inbounds [4 x double], ptr %22, i64 0, i64 3
  store double %21, ptr %23, align 8, !tbaa !122
  ret void
}

; Function Attrs: inlinehint mustprogress nounwind uwtable
define internal noundef double @_ZN2cvL13saturate_castIdEET_d(double noundef %0) #2 {
  %2 = alloca double, align 8
  store double %0, ptr %2, align 8, !tbaa !122
  %3 = load double, ptr %2, align 8, !tbaa !122
  ret double %3
}

; Function Attrs: inlinehint mustprogress nounwind uwtable
define linkonce_odr hidden void @_ZN2cv11_InputArray4initEiPKv(ptr noundef nonnull align 8 dereferenceable(24) %0, i32 noundef %1, ptr noundef %2) #2 comdat align 2 {
  %4 = alloca ptr, align 8
  %5 = alloca i32, align 4
  %6 = alloca ptr, align 8
  store ptr %0, ptr %4, align 8, !tbaa !114
  store i32 %1, ptr %5, align 4, !tbaa !19
  store ptr %2, ptr %6, align 8, !tbaa !48
  %7 = load ptr, ptr %4, align 8
  %8 = load i32, ptr %5, align 4, !tbaa !19
  %9 = getelementptr inbounds nuw %"class.cv::_InputArray", ptr %7, i32 0, i32 0
  store i32 %8, ptr %9, align 8, !tbaa !144
  %10 = load ptr, ptr %6, align 8, !tbaa !48
  %11 = getelementptr inbounds nuw %"class.cv::_InputArray", ptr %7, i32 0, i32 1
  store ptr %10, ptr %11, align 8, !tbaa !116
  ret void
}

; Function Attrs: inlinehint mustprogress uwtable
define linkonce_odr hidden void @_ZN2cv12_OutputArrayC2Ev(ptr noundef nonnull align 8 dereferenceable(24) %0) unnamed_addr #6 comdat align 2 personality ptr @__gxx_personality_v0 {
  %2 = alloca ptr, align 8
  %3 = alloca ptr, align 8
  %4 = alloca i32, align 4
  store ptr %0, ptr %2, align 8, !tbaa !112
  %5 = load ptr, ptr %2, align 8
  call void @_ZN2cv11_InputArrayC2Ev(ptr noundef nonnull align 8 dereferenceable(24) %5)
  invoke void @_ZN2cv11_InputArray4initEiPKv(ptr noundef nonnull align 8 dereferenceable(24) %5, i32 noundef 33554432, ptr noundef null)
          to label %6 unwind label %7

6:                                                ; preds = %1
  ret void

7:                                                ; preds = %1
  %8 = landingpad { ptr, i32 }
          cleanup
  %9 = extractvalue { ptr, i32 } %8, 0
  store ptr %9, ptr %3, align 8
  %10 = extractvalue { ptr, i32 } %8, 1
  store i32 %10, ptr %4, align 4
  call void @_ZN2cv11_InputArrayD2Ev(ptr noundef nonnull align 8 dereferenceable(24) %5) #18
  br label %11

11:                                               ; preds = %7
  %12 = load ptr, ptr %3, align 8
  %13 = load i32, ptr %4, align 4
  %14 = insertvalue { ptr, i32 } poison, ptr %12, 0
  %15 = insertvalue { ptr, i32 } %14, i32 %13, 1
  resume { ptr, i32 } %15
}

; Function Attrs: inlinehint mustprogress nounwind uwtable
define linkonce_odr hidden void @_ZN2cv11_InputArrayD2Ev(ptr noundef nonnull align 8 dereferenceable(24) %0) unnamed_addr #2 comdat align 2 {
  %2 = alloca ptr, align 8
  store ptr %0, ptr %2, align 8, !tbaa !114
  ret void
}

; Function Attrs: mustprogress uwtable
define linkonce_odr hidden void @_ZNK8CvScalarcvN2cv7Scalar_IT_EEIdEEv(ptr dead_on_unwind noalias writable sret(%"class.cv::Scalar_") align 8 %0, ptr noundef nonnull align 8 dereferenceable(32) %1) #0 comdat align 2 {
  %3 = alloca ptr, align 8
  %4 = alloca ptr, align 8
  store ptr %0, ptr %3, align 8
  store ptr %1, ptr %4, align 8, !tbaa !120
  %5 = load ptr, ptr %4, align 8
  %6 = getelementptr inbounds nuw %struct.CvScalar, ptr %5, i32 0, i32 0
  %7 = getelementptr inbounds [4 x double], ptr %6, i64 0, i64 0
  %8 = load double, ptr %7, align 8, !tbaa !122
  %9 = call noundef double @_ZN2cvL13saturate_castIdEET_d(double noundef %8)
  %10 = getelementptr inbounds nuw %struct.CvScalar, ptr %5, i32 0, i32 0
  %11 = getelementptr inbounds [4 x double], ptr %10, i64 0, i64 1
  %12 = load double, ptr %11, align 8, !tbaa !122
  %13 = call noundef double @_ZN2cvL13saturate_castIdEET_d(double noundef %12)
  %14 = getelementptr inbounds nuw %struct.CvScalar, ptr %5, i32 0, i32 0
  %15 = getelementptr inbounds [4 x double], ptr %14, i64 0, i64 2
  %16 = load double, ptr %15, align 8, !tbaa !122
  %17 = call noundef double @_ZN2cvL13saturate_castIdEET_d(double noundef %16)
  %18 = getelementptr inbounds nuw %struct.CvScalar, ptr %5, i32 0, i32 0
  %19 = getelementptr inbounds [4 x double], ptr %18, i64 0, i64 3
  %20 = load double, ptr %19, align 8, !tbaa !122
  %21 = call noundef double @_ZN2cvL13saturate_castIdEET_d(double noundef %20)
  call void @_ZN2cv7Scalar_IdEC2Edddd(ptr noundef nonnull align 8 dereferenceable(32) %0, double noundef %9, double noundef %13, double noundef %17, double noundef %21)
  ret void
}

; Function Attrs: inlinehint mustprogress uwtable
define linkonce_odr hidden void @_ZN2cv17_InputOutputArrayC2ERNS_3MatE(ptr noundef nonnull align 8 dereferenceable(24) %0, ptr noundef nonnull align 8 dereferenceable(96) %1) unnamed_addr #6 comdat align 2 personality ptr @__gxx_personality_v0 {
  %3 = alloca ptr, align 8
  %4 = alloca ptr, align 8
  %5 = alloca ptr, align 8
  %6 = alloca i32, align 4
  store ptr %0, ptr %3, align 8, !tbaa !118
  store ptr %1, ptr %4, align 8, !tbaa !3
  %7 = load ptr, ptr %3, align 8
  call void @_ZN2cv12_OutputArrayC2Ev(ptr noundef nonnull align 8 dereferenceable(24) %7)
  %8 = load ptr, ptr %4, align 8, !tbaa !3
  invoke void @_ZN2cv11_InputArray4initEiPKv(ptr noundef nonnull align 8 dereferenceable(24) %7, i32 noundef 50397184, ptr noundef %8)
          to label %9 unwind label %10

9:                                                ; preds = %2
  ret void

10:                                               ; preds = %2
  %11 = landingpad { ptr, i32 }
          cleanup
  %12 = extractvalue { ptr, i32 } %11, 0
  store ptr %12, ptr %5, align 8
  %13 = extractvalue { ptr, i32 } %11, 1
  store i32 %13, ptr %6, align 4
  call void @_ZN2cv11_InputArrayD2Ev(ptr noundef nonnull align 8 dereferenceable(24) %7) #18
  br label %14

14:                                               ; preds = %10
  %15 = load ptr, ptr %5, align 8
  %16 = load i32, ptr %6, align 4
  %17 = insertvalue { ptr, i32 } poison, ptr %15, 0
  %18 = insertvalue { ptr, i32 } %17, i32 %16, 1
  resume { ptr, i32 } %18
}

; Function Attrs: mustprogress uwtable
define void @cvSetIdentity(ptr noundef %0, ptr noundef byval(%struct.CvScalar) align 8 %1) #0 personality ptr @__gxx_personality_v0 {
  %3 = alloca ptr, align 8
  %4 = alloca %"class.cv::Mat", align 8
  %5 = alloca %"class.cv::_InputOutputArray", align 8
  %6 = alloca ptr, align 8
  %7 = alloca i32, align 4
  %8 = alloca %"class.cv::Scalar_", align 8
  store ptr %0, ptr %3, align 8, !tbaa !48
  call void @llvm.lifetime.start.p0(i64 96, ptr %4) #18
  %9 = load ptr, ptr %3, align 8, !tbaa !48
  call void @_ZN2cv10cvarrToMatEPKvbbiPNS_10AutoBufferIdLm136EEE(ptr dead_on_unwind writable sret(%"class.cv::Mat") align 8 %4, ptr noundef %9, i1 noundef zeroext false, i1 noundef zeroext true, i32 noundef 0, ptr noundef null)
  call void @llvm.lifetime.start.p0(i64 24, ptr %5) #18
  invoke void @_ZN2cv17_InputOutputArrayC2ERNS_3MatE(ptr noundef nonnull align 8 dereferenceable(24) %5, ptr noundef nonnull align 8 dereferenceable(96) %4)
          to label %10 unwind label %13

10:                                               ; preds = %2
  call void @llvm.lifetime.start.p0(i64 32, ptr %8) #18
  invoke void @_ZNK8CvScalarcvN2cv7Scalar_IT_EEIdEEv(ptr dead_on_unwind writable sret(%"class.cv::Scalar_") align 8 %8, ptr noundef nonnull align 8 dereferenceable(32) %1)
          to label %11 unwind label %17

11:                                               ; preds = %10
  invoke void @_ZN2cv11setIdentityERKNS_17_InputOutputArrayERKNS_7Scalar_IdEE(ptr noundef nonnull align 8 dereferenceable(24) %5, ptr noundef nonnull align 8 dereferenceable(32) %8)
          to label %12 unwind label %17

12:                                               ; preds = %11
  call void @llvm.lifetime.end.p0(i64 32, ptr %8) #18
  call void @_ZN2cv11_InputArrayD2Ev(ptr noundef nonnull align 8 dereferenceable(24) %5) #18
  call void @llvm.lifetime.end.p0(i64 24, ptr %5) #18
  call void @_ZN2cv3MatD1Ev(ptr noundef nonnull align 8 dereferenceable(96) %4) #18
  call void @llvm.lifetime.end.p0(i64 96, ptr %4) #18
  ret void

13:                                               ; preds = %2
  %14 = landingpad { ptr, i32 }
          cleanup
  %15 = extractvalue { ptr, i32 } %14, 0
  store ptr %15, ptr %6, align 8
  %16 = extractvalue { ptr, i32 } %14, 1
  store i32 %16, ptr %7, align 4
  br label %21

17:                                               ; preds = %11, %10
  %18 = landingpad { ptr, i32 }
          cleanup
  %19 = extractvalue { ptr, i32 } %18, 0
  store ptr %19, ptr %6, align 8
  %20 = extractvalue { ptr, i32 } %18, 1
  store i32 %20, ptr %7, align 4
  call void @llvm.lifetime.end.p0(i64 32, ptr %8) #18
  call void @_ZN2cv11_InputArrayD2Ev(ptr noundef nonnull align 8 dereferenceable(24) %5) #18
  br label %21

21:                                               ; preds = %17, %13
  call void @llvm.lifetime.end.p0(i64 24, ptr %5) #18
  call void @_ZN2cv3MatD1Ev(ptr noundef nonnull align 8 dereferenceable(96) %4) #18
  call void @llvm.lifetime.end.p0(i64 96, ptr %4) #18
  br label %22

22:                                               ; preds = %21
  %23 = load ptr, ptr %6, align 8
  %24 = load i32, ptr %7, align 4
  %25 = insertvalue { ptr, i32 } poison, ptr %23, 0
  %26 = insertvalue { ptr, i32 } %25, i32 %24, 1
  resume { ptr, i32 } %26
}