; Function Attrs: mustprogress uwtable
define void @cvSetIdentity(ptr noundef %0, ptr noundef readonly byval(%struct.CvScalar) align 8 captures(none) %1) local_unnamed_addr #0 personality ptr @__gxx_personality_v0 {
  %3 = alloca %"class.cv::Mat", align 8
  %4 = alloca %"class.cv::_InputOutputArray", align 8
  %5 = alloca %"class.cv::Scalar_", align 8
  call void @llvm.lifetime.start.p0(i64 96, ptr nonnull %3) #13
  call void @_ZN2cv10cvarrToMatEPKvbbiPNS_10AutoBufferIdLm136EEE(ptr dead_on_unwind nonnull writable sret(%"class.cv::Mat") align 8 %3, ptr noundef %0, i1 noundef zeroext false, i1 zeroext poison, i32 noundef 0, ptr noundef null)
  call void @llvm.lifetime.start.p0(i64 24, ptr nonnull %4) #13
  %6 = getelementptr inbounds nuw i8, ptr %4, i64 8
  %7 = getelementptr inbounds nuw i8, ptr %4, i64 16
  store i64 0, ptr %7, align 8
  store i32 50397184, ptr %4, align 8, !tbaa !45
  store ptr %3, ptr %6, align 8, !tbaa !48
  call void @llvm.lifetime.start.p0(i64 32, ptr nonnull %5) #13
  call void @llvm.experimental.noalias.scope.decl(metadata !97)
  %8 = load double, ptr %1, align 8, !tbaa !100, !noalias !97
  %9 = getelementptr inbounds nuw i8, ptr %1, i64 8
  %10 = load double, ptr %9, align 8, !tbaa !100, !noalias !97
  %11 = getelementptr inbounds nuw i8, ptr %1, i64 16
  %12 = load double, ptr %11, align 8, !tbaa !100, !noalias !97
  %13 = getelementptr inbounds nuw i8, ptr %1, i64 24
  %14 = load double, ptr %13, align 8, !tbaa !100, !noalias !97
  store double %8, ptr %5, align 8, !tbaa !100, !alias.scope !97
  %15 = getelementptr inbounds nuw i8, ptr %5, i64 8
  store double %10, ptr %15, align 8, !tbaa !100, !alias.scope !97
  %16 = getelementptr inbounds nuw i8, ptr %5, i64 16
  store double %12, ptr %16, align 8, !tbaa !100, !alias.scope !97
  %17 = getelementptr inbounds nuw i8, ptr %5, i64 24
  store double %14, ptr %17, align 8, !tbaa !100, !alias.scope !97
  invoke void @_ZN2cv11setIdentityERKNS_17_InputOutputArrayERKNS_7Scalar_IdEE(ptr noundef nonnull align 8 dereferenceable(24) %4, ptr noundef nonnull align 8 dereferenceable(32) %5)
          to label %18 unwind label %19

18:                                               ; preds = %2
  call void @llvm.lifetime.end.p0(i64 32, ptr nonnull %5) #13
  call void @llvm.lifetime.end.p0(i64 24, ptr nonnull %4) #13
  call void @_ZN2cv3MatD1Ev(ptr noundef nonnull align 8 dereferenceable(96) %3) #13
  call void @llvm.lifetime.end.p0(i64 96, ptr nonnull %3) #13
  ret void

19:                                               ; preds = %2
  %20 = landingpad { ptr, i32 }
          cleanup
  call void @llvm.lifetime.end.p0(i64 32, ptr nonnull %5) #13
  call void @llvm.lifetime.end.p0(i64 24, ptr nonnull %4) #13
  call void @_ZN2cv3MatD1Ev(ptr noundef nonnull align 8 dereferenceable(96) %3) #13
  call void @llvm.lifetime.end.p0(i64 96, ptr nonnull %3) #13
  resume { ptr, i32 } %20
}